#include <math.h>
#include <stdio.h>
#include <stdlib.h>
#include <string.h>
#include <iostream>
using namespace std;

//**************************
//*???????? **
//*?????? 1200012888 **
//*???2013.12.04**
//**************************
int N;										//???????N
int i = 1;									//i ????? ???????????
int Apple(int n,int k)						//????????Apple
{
	if (n == 1)								//????????????? ??? ??? i * N + k?
	{
		return i * N + k ;					//??
	}
	else 
	{
		while (Apple(n - 1,k) % (N - 1) != 0)		//???? ? ??????? i ++
		{
			i ++;
		}
		return (N * Apple(n - 1,k) / (N - 1) + k);	//???????
	}
}
int main()
{
	int n,k;										//?????n??????k
	cin >> n >> k;									//??n k
	N = n;
	cout << Apple(n,k) << endl;						//??Apple??~
	return 0;
}